; Function Attrs: mustprogress uwtable
define noundef ptr @_ZNK6icu_776Region19getContainingRegionEv(ptr noundef nonnull readonly align 8 captures(none) dereferenceable(112) %0) local_unnamed_addr #1 align 2 {
  %2 = alloca i32, align 4
  call void @llvm.lifetime.start.p0(i64 4, ptr nonnull %2) #19
  store i32 0, ptr %2, align 4, !tbaa !13
  %3 = load atomic i32, ptr @_ZN6icu_77L19gRegionDataInitOnceE acquire, align 4
  %.not11.i = icmp eq i32 %3, 2
  br i1 %.not11.i, label %_ZN6icu_7713umtx_initOnceERNS_9UInitOnceEPFvR10UErrorCodeES3_.exit, label %4

4:                                                ; preds = %1
  %5 = tail call noundef signext i8 @_ZN6icu_7720umtx_initImplPreInitERNS_9UInitOnceE(ptr noundef nonnull align 4 dereferenceable(8) @_ZN6icu_77L19gRegionDataInitOnceE)
  %.not12.i = icmp eq i8 %5, 0
  br i1 %.not12.i, label %_ZN6icu_7713umtx_initOnceERNS_9UInitOnceEPFvR10UErrorCodeES3_.exit, label %6

6:                                                ; preds = %4
  call void @_ZN6icu_776Region14loadRegionDataER10UErrorCode(ptr noundef nonnull align 4 dereferenceable(4) %2)
  %7 = load i32, ptr %2, align 4, !tbaa !13
  store i32 %7, ptr getelementptr inbounds nuw (i8, ptr @_ZN6icu_77L19gRegionDataInitOnceE, i64 4), align 4, !tbaa !98
  call void @_ZN6icu_7721umtx_initImplPostInitERNS_9UInitOnceE(ptr noundef nonnull align 4 dereferenceable(8) @_ZN6icu_77L19gRegionDataInitOnceE)
  br label %_ZN6icu_7713umtx_initOnceERNS_9UInitOnceEPFvR10UErrorCodeES3_.exit

_ZN6icu_7713umtx_initOnceERNS_9UInitOnceEPFvR10UErrorCodeES3_.exit: ; preds = %1, %4, %6
  %8 = getelementptr inbounds nuw i8, ptr %0, i64 88
  %9 = load ptr, ptr %8, align 8, !tbaa !95
  call void @llvm.lifetime.end.p0(i64 4, ptr nonnull %2) #19
  ret ptr %9
}